target datalayout = "e-m:e-p270:32:32-p271:32:32-p272:64:64-i64:64-i128:128-f80:128-n8:16:32:64-S128"
target triple = "x86_64-pc-linux-gnu"

@.str = private unnamed_addr constant [58 x i8] c"ptl:base:set_nonblocking: fcntl(F_GETFL) failed: %s (%d)\0A\00", align 1
@.str.1 = private unnamed_addr constant [58 x i8] c"ptl:base:set_nonblocking: fcntl(F_SETFL) failed: %s (%d)\0A\00", align 1

; Function Attrs: nounwind uwtable
define i32 @pmix_ptl_base_set_nonblocking(i32 noundef %0) #0 {
  %2 = alloca i32, align 4
  %3 = alloca i32, align 4
  store i32 %0, ptr %2, align 4, !tbaa !3
  call void @llvm.lifetime.start.p0(i64 4, ptr %3) #11
  %4 = load i32, ptr %2, align 4, !tbaa !3
  %5 = call i32 (i32, i32, ...) @fcntl(i32 noundef %4, i32 noundef 3, i32 noundef 0)
  store i32 %5, ptr %3, align 4, !tbaa !3
  %6 = icmp slt i32 %5, 0
  br i1 %6, label %7, label %13

7:                                                ; preds = %1
  %8 = call ptr @__errno_location() #12
  %9 = load i32, ptr %8, align 4, !tbaa !3
  %10 = call ptr @strerror(i32 noundef %9) #11
  %11 = call ptr @__errno_location() #12
  %12 = load i32, ptr %11, align 4, !tbaa !3
  call void (i32, ptr, ...) @pmix_output(i32 noundef 0, ptr noundef @.str, ptr noundef %10, i32 noundef %12)
  br label %27

13:                                               ; preds = %1
  %14 = load i32, ptr %3, align 4, !tbaa !3
  %15 = or i32 %14, 2048
  store i32 %15, ptr %3, align 4, !tbaa !3
  %16 = load i32, ptr %2, align 4, !tbaa !3
  %17 = load i32, ptr %3, align 4, !tbaa !3
  %18 = call i32 (i32, i32, ...) @fcntl(i32 noundef %16, i32 noundef 4, i32 noundef %17)
  %19 = icmp slt i32 %18, 0
  br i1 %19, label %20, label %26

20:                                               ; preds = %13
  %21 = call ptr @__errno_location() #12
  %22 = load i32, ptr %21, align 4, !tbaa !3
  %23 = call ptr @strerror(i32 noundef %22) #11
  %24 = call ptr @__errno_location() #12
  %25 = load i32, ptr %24, align 4, !tbaa !3
  call void (i32, ptr, ...) @pmix_output(i32 noundef 0, ptr noundef @.str.1, ptr noundef %23, i32 noundef %25)
  br label %26

26:                                               ; preds = %20, %13
  br label %27

27:                                               ; preds = %26, %7
  call void @llvm.lifetime.end.p0(i64 4, ptr %3) #11
  ret i32 0
}