; Function Attrs: nounwind uwtable
define noundef i32 @pmix_ptl_base_set_nonblocking(i32 noundef %0) local_unnamed_addr #0 {
  %2 = tail call i32 (i32, i32, ...) @fcntl(i32 noundef %0, i32 noundef 3, i32 noundef 0) #14
  %3 = icmp slt i32 %2, 0
  br i1 %3, label %.sink.split, label %4

4:                                                ; preds = %1
  %5 = or i32 %2, 2048
  %6 = tail call i32 (i32, i32, ...) @fcntl(i32 noundef %0, i32 noundef 4, i32 noundef %5) #14
  %7 = icmp slt i32 %6, 0
  br i1 %7, label %.sink.split, label %12

.sink.split:                                      ; preds = %4, %1
  %.str.1.sink = phi ptr [ @.str, %1 ], [ @.str.1, %4 ]
  %8 = tail call ptr @__errno_location() #15
  %9 = load i32, ptr %8, align 4, !tbaa !3
  %10 = tail call ptr @strerror(i32 noundef %9) #14
  %11 = load i32, ptr %8, align 4, !tbaa !3
  tail call void (i32, ptr, ...) @pmix_output(i32 noundef 0, ptr noundef nonnull %.str.1.sink, ptr noundef %10, i32 noundef %11) #14
  br label %12

12:                                               ; preds = %.sink.split, %4
  ret i32 0
}